target datalayout = "e-m:e-p270:32:32-p271:32:32-p272:64:64-i64:64-i128:128-f80:128-n8:16:32:64-S128"
target triple = "x86_64-pc-linux-gnu"

%struct.If_Man_t_ = type { ptr, ptr, ptr, ptr, ptr, ptr, ptr, ptr, [5 x i32], i32, float, float, float, float, i32, float, i32, i32, [4 x ptr], ptr, i32, i32, i32, ptr, [3 x [32 x i32]], i32, i32, i32, ptr, ptr, ptr, ptr, ptr, ptr, ptr, i32, i32, i32, [16 x i32], i32, i32, i32, i32, ptr, ptr, ptr, ptr, ptr, i32, i32, [32 x i32], [32 x i32], i32, i32, i32, i32, ptr, [16 x ptr], [16 x ptr], [16 x ptr], [16 x ptr], [16 x ptr], [16 x ptr], [16 x ptr], ptr, ptr, ptr, ptr, [32 x i8], i32, i32, i32, [6 x i64], [2 x i32], [2 x i32], ptr, [15 x i32], ptr, ptr, ptr, [16 x i32], ptr, ptr, ptr, ptr, [2 x i32], [2 x i32], [2 x ptr], ptr }

; Function Attrs: nounwind uwtable
define i32 @If_ManBinarySearch_rec(ptr noundef %0, i32 noundef %1, i32 noundef %2) #0 {
  %4 = alloca i32, align 4
  %5 = alloca ptr, align 8
  %6 = alloca i32, align 4
  %7 = alloca i32, align 4
  store ptr %0, ptr %5, align 8, !tbaa !3
  store i32 %1, ptr %6, align 4, !tbaa !8
  store i32 %2, ptr %7, align 4, !tbaa !8
  %8 = load i32, ptr %6, align 4, !tbaa !8
  %9 = add nsw i32 %8, 1
  %10 = load i32, ptr %7, align 4, !tbaa !8
  %11 = icmp eq i32 %9, %10
  br i1 %11, label %12, label %14

12:                                               ; preds = %3
  %13 = load i32, ptr %7, align 4, !tbaa !8
  store i32 %13, ptr %4, align 4
  br label %40

14:                                               ; preds = %3
  %15 = load i32, ptr %6, align 4, !tbaa !8
  %16 = load i32, ptr %7, align 4, !tbaa !8
  %17 = load i32, ptr %6, align 4, !tbaa !8
  %18 = sub nsw i32 %16, %17
  %19 = sdiv i32 %18, 2
  %20 = add nsw i32 %15, %19
  %21 = load ptr, ptr %5, align 8, !tbaa !3
  %22 = getelementptr inbounds nuw %struct.If_Man_t_, ptr %21, i32 0, i32 37
  store i32 %20, ptr %22, align 8, !tbaa !52
  %23 = load ptr, ptr %5, align 8, !tbaa !3
  %24 = call i32 @If_ManBinarySearchPeriod(ptr noundef %23)
  %25 = icmp ne i32 %24, 0
  br i1 %25, label %26, label %33

26:                                               ; preds = %14
  %27 = load ptr, ptr %5, align 8, !tbaa !3
  %28 = load i32, ptr %6, align 4, !tbaa !8
  %29 = load ptr, ptr %5, align 8, !tbaa !3
  %30 = getelementptr inbounds nuw %struct.If_Man_t_, ptr %29, i32 0, i32 37
  %31 = load i32, ptr %30, align 8, !tbaa !52
  %32 = call i32 @If_ManBinarySearch_rec(ptr noundef %27, i32 noundef %28, i32 noundef %31)
  store i32 %32, ptr %4, align 4
  br label %40

33:                                               ; preds = %14
  %34 = load ptr, ptr %5, align 8, !tbaa !3
  %35 = load ptr, ptr %5, align 8, !tbaa !3
  %36 = getelementptr inbounds nuw %struct.If_Man_t_, ptr %35, i32 0, i32 37
  %37 = load i32, ptr %36, align 8, !tbaa !52
  %38 = load i32, ptr %7, align 4, !tbaa !8
  %39 = call i32 @If_ManBinarySearch_rec(ptr noundef %34, i32 noundef %37, i32 noundef %38)
  store i32 %39, ptr %4, align 4
  br label %40

40:                                               ; preds = %33, %26, %12
  %41 = load i32, ptr %4, align 4
  ret i32 %41
}