; Function Attrs: nounwind uwtable
define range(i32 -2147483647, -2147483648) i32 @If_ManBinarySearch_rec(ptr noundef %0, i32 noundef %1, i32 noundef %2) local_unnamed_addr #2 {
  %4 = add nsw i32 %1, 1
  %5 = icmp eq i32 %4, %2
  br i1 %5, label %tailrecurse._crit_edge, label %.lr.ph

.lr.ph:                                           ; preds = %3
  %6 = getelementptr inbounds nuw i8, ptr %0, i64 648
  br label %tailrecurse

tailrecurse:                                      ; preds = %.lr.ph, %tailrecurse
  %.tr1618 = phi i32 [ %2, %.lr.ph ], [ %.tr16., %tailrecurse ]
  %.tr1517 = phi i32 [ %1, %.lr.ph ], [ %..tr15, %tailrecurse ]
  %7 = sub nsw i32 %.tr1618, %.tr1517
  %8 = sdiv i32 %7, 2
  %9 = add nsw i32 %8, %.tr1517
  store i32 %9, ptr %6, align 8, !tbaa !46
  %10 = tail call i32 @If_ManBinarySearchPeriod(ptr noundef %0)
  %.not = icmp eq i32 %10, 0
  %11 = load i32, ptr %6, align 8, !tbaa !46
  %..tr15 = select i1 %.not, i32 %11, i32 %.tr1517
  %.tr16. = select i1 %.not, i32 %.tr1618, i32 %11
  %12 = add nsw i32 %..tr15, 1
  %13 = icmp eq i32 %12, %.tr16.
  br i1 %13, label %tailrecurse._crit_edge, label %tailrecurse

tailrecurse._crit_edge:                           ; preds = %tailrecurse, %3
  %.tr16.lcssa = phi i32 [ %2, %3 ], [ %.tr16., %tailrecurse ]
  ret i32 %.tr16.lcssa
}